
Allocating common symbols
Common symbol       size              file

apb3_ctrl_reg       0x4               build/obj_files/main.o

Discarded input sections

 .group         0x0000000000000000        0xc build/obj_files/main.o
 .group         0x0000000000000000        0xc build/obj_files/main.o
 .group         0x0000000000000000        0xc build/obj_files/main.o
 .group         0x0000000000000000        0xc build/obj_files/main.o
 .group         0x0000000000000000        0xc build/obj_files/main.o
 .group         0x0000000000000000        0xc build/obj_files/main.o
 .group         0x0000000000000000        0xc build/obj_files/main.o
 .group         0x0000000000000000        0xc build/obj_files/main.o
 .group         0x0000000000000000        0xc build/obj_files/main.o
 .group         0x0000000000000000        0xc build/obj_files/main.o
 .group         0x0000000000000000        0xc build/obj_files/main.o
 .group         0x0000000000000000        0xc build/obj_files/main.o
 .group         0x0000000000000000        0xc build/obj_files/main.o
 .group         0x0000000000000000        0xc build/obj_files/main.o
 .group         0x0000000000000000        0xc build/obj_files/main.o
 .group         0x0000000000000000        0xc build/obj_files/main.o
 .group         0x0000000000000000        0xc build/obj_files/main.o
 .group         0x0000000000000000        0xc build/obj_files/main.o
 .group         0x0000000000000000        0xc build/obj_files/main.o
 .group         0x0000000000000000        0xc build/obj_files/main.o
 .group         0x0000000000000000        0xc build/obj_files/main.o
 .group         0x0000000000000000        0xc build/obj_files/main.o
 .group         0x0000000000000000        0xc build/obj_files/main.o
 .group         0x0000000000000000        0xc build/obj_files/main.o
 .group         0x0000000000000000        0xc build/obj_files/main.o
 .group         0x0000000000000000        0xc build/obj_files/main.o
 .group         0x0000000000000000        0xc build/obj_files/main.o
 .group         0x0000000000000000        0xc build/obj_files/main.o
 .group         0x0000000000000000        0xc build/obj_files/main.o
 .group         0x0000000000000000        0xc build/obj_files/main.o
 .group         0x0000000000000000        0xc build/obj_files/main.o
 .group         0x0000000000000000        0xc build/obj_files/main.o
 .group         0x0000000000000000        0xc build/obj_files/main.o
 .group         0x0000000000000000        0xc build/obj_files/main.o
 .group         0x0000000000000000        0xc build/obj_files/main.o
 .group         0x0000000000000000        0xc build/obj_files/main.o
 .group         0x0000000000000000        0xc build/obj_files/main.o
 .group         0x0000000000000000        0xc build/obj_files/main.o
 .group         0x0000000000000000        0xc build/obj_files/main.o
 .group         0x0000000000000000        0xc build/obj_files/main.o

Memory Configuration

Name             Origin             Length             Attributes
ROM              0x00000000f9000000 0x0000000000008000 xr
RAM              0x00000000f9080000 0x0000000000008000 xrw
*default*        0x0000000000000000 0xffffffffffffffff

Linker script and memory map

LOAD build/obj_files/main.o
LOAD build/obj_files/start.o
LOAD build/obj_files/trap.o
LOAD c:/efinity/efinity-riscv-ide-2022.2.3/toolchain/bin/../lib/gcc/riscv-none-embed/8.3.0/../../../../riscv-none-embed/lib/rv32im/ilp32\libc.a
LOAD c:/efinity/efinity-riscv-ide-2022.2.3/toolchain/bin/../lib/gcc/riscv-none-embed/8.3.0/rv32im/ilp32\libgcc.a
                0x00000000f9000000                . = 0xf9000000

.text.init      0x00000000f9000000       0x40
 .text.init     0x00000000f9000000       0x40 build/obj_files/start.o
                0x00000000f9000000                _start
                0x0000000000000040                . = 0x40

.text           0x00000000f9000040     0x13b8
 .text          0x00000000f9000040     0x1328 build/obj_files/main.o
                0x00000000f90002e4                apb3_read
                0x00000000f90002ec                apb3_ctrl_write
                0x00000000f90002f8                init
                0x00000000f9000354                trap
                0x00000000f9000358                ReadInaRegister
                0x00000000f9000448                WriteInaRegister
                0x00000000f900050c                Max32664Write
                0x00000000f900059c                Max32664Read
                0x00000000f9000664                Max32664setRegister
                0x00000000f9000798                Max32664getRegister
                0x00000000f9000834                Max32664reset
                0x00000000f9000850                Max32664mfio
                0x00000000f9000870                Max32664StatusCheck
                0x00000000f90008cc                Max32664GetHubStatus
                0x00000000f900091c                Max32664GetNumberOfSamples
                0x00000000f9000970                Max32664GetSampleSize
                0x00000000f90009cc                Max32664SetSpo2Coeff
                0x00000000f9000a44                Max32664GetFifoData
                0x00000000f9000f10                Max32664Init
                0x00000000f90010c0                main
 .text          0x00000000f9001368        0x0 build/obj_files/start.o
 .text          0x00000000f9001368       0x90 build/obj_files/trap.o
                0x00000000f9001368                trap_entry
                0x00000000f9080000                . = 0xf9080000
                0x00000000f9080000                . = ALIGN (0x4)

.rodata

.rodata.str1.4  0x00000000f9080000      0x13c
 .rodata.str1.4
                0x00000000f9080000      0x13c build/obj_files/main.o
                                        0x144 (size before relaxing)

.srodata        0x00000000f908013c        0x1
 .srodata       0x00000000f908013c        0x1 build/obj_files/main.o
                0x00000000f908013c                BIO_ADDRESS

.rela.dyn       0x00000000f9080140        0x0
 .rela.text.init
                0x00000000f9080140        0x0 build/obj_files/main.o
                0x00000000f9080140                . = ALIGN (0x4)

.data           0x00000000f908013d        0x0 load address 0x00000000f9080140
 .data          0x00000000f908013d        0x0 build/obj_files/main.o
 .data          0x00000000f908013d        0x0 build/obj_files/start.o
 .data          0x00000000f908013d        0x0 build/obj_files/trap.o
                0x00000000f9080140                . = ALIGN (0x4)
                0x00000000f9080140                _bss_start = .

.bss            0x00000000f9080140        0x4 load address 0x00000000f9080144
 .bss           0x00000000f9080140        0x0 build/obj_files/main.o
 COMMON         0x00000000f9080140        0x4 build/obj_files/main.o
                0x00000000f9080140                apb3_ctrl_reg
 .bss           0x00000000f9080144        0x0 build/obj_files/start.o
 .bss           0x00000000f9080144        0x0 build/obj_files/trap.o
                0x00000000f9080144                . = ALIGN (0x4)
                0x00000000f9080144                _bss_end = .
                0x00000000f9080144                . = ALIGN (0x4)
                0x00000000f9080144                end = .
                0x00000000f9080144                _end = .
LOAD c:/efinity/efinity-riscv-ide-2022.2.3/toolchain/bin/../lib/gcc/riscv-none-embed/8.3.0/../../../../riscv-none-embed/lib/rv32im/ilp32\libm.a
LOAD c:/efinity/efinity-riscv-ide-2022.2.3/toolchain/bin/../lib/gcc/riscv-none-embed/8.3.0/rv32im/ilp32\libgcc.a
START GROUP
LOAD c:/efinity/efinity-riscv-ide-2022.2.3/toolchain/bin/../lib/gcc/riscv-none-embed/8.3.0/rv32im/ilp32\libgcc.a
LOAD c:/efinity/efinity-riscv-ide-2022.2.3/toolchain/bin/../lib/gcc/riscv-none-embed/8.3.0/../../../../riscv-none-embed/lib/rv32im/ilp32\libg.a
LOAD c:/efinity/efinity-riscv-ide-2022.2.3/toolchain/bin/../lib/gcc/riscv-none-embed/8.3.0/../../../../riscv-none-embed/lib/rv32im/ilp32\libc.a
END GROUP
LOAD c:/efinity/efinity-riscv-ide-2022.2.3/toolchain/bin/../lib/gcc/riscv-none-embed/8.3.0/rv32im/ilp32\libgcc.a
START GROUP
LOAD c:/efinity/efinity-riscv-ide-2022.2.3/toolchain/bin/../lib/gcc/riscv-none-embed/8.3.0/rv32im/ilp32\libgcc.a
LOAD c:/efinity/efinity-riscv-ide-2022.2.3/toolchain/bin/../lib/gcc/riscv-none-embed/8.3.0/../../../../riscv-none-embed/lib/rv32im/ilp32\libc.a
LOAD c:/efinity/efinity-riscv-ide-2022.2.3/toolchain/bin/../lib/gcc/riscv-none-embed/8.3.0/../../../../riscv-none-embed/lib/rv32im/ilp32\libnosys.a
END GROUP
OUTPUT(build/i2cDemoSpo2.elf elf32-littleriscv)

.sbss           0x00000000f9080144        0x8 load address 0x00000000f9080148
 .sbss          0x00000000f9080144        0x8 build/obj_files/main.o
                0x00000000f9080148                phase

.debug_info     0x0000000000000000     0x37b3
 .debug_info    0x0000000000000000     0x3767 build/obj_files/main.o
 .debug_info    0x0000000000003767       0x26 build/obj_files/start.o
 .debug_info    0x000000000000378d       0x26 build/obj_files/trap.o

.debug_abbrev   0x0000000000000000      0x539
 .debug_abbrev  0x0000000000000000      0x511 build/obj_files/main.o
 .debug_abbrev  0x0000000000000511       0x14 build/obj_files/start.o
 .debug_abbrev  0x0000000000000525       0x14 build/obj_files/trap.o

.debug_loc      0x0000000000000000     0x116b
 .debug_loc     0x0000000000000000     0x116b build/obj_files/main.o

.debug_aranges  0x0000000000000000       0x60
 .debug_aranges
                0x0000000000000000       0x20 build/obj_files/main.o
 .debug_aranges
                0x0000000000000020       0x20 build/obj_files/start.o
 .debug_aranges
                0x0000000000000040       0x20 build/obj_files/trap.o

.debug_ranges   0x0000000000000000       0x48
 .debug_ranges  0x0000000000000000       0x48 build/obj_files/main.o

.debug_macro    0x0000000000000000     0x1f26
 .debug_macro   0x0000000000000000      0x1ec build/obj_files/main.o
 .debug_macro   0x00000000000001ec      0x760 build/obj_files/main.o
 .debug_macro   0x000000000000094c       0x22 build/obj_files/main.o
 .debug_macro   0x000000000000096e       0x8e build/obj_files/main.o
 .debug_macro   0x00000000000009fc       0x51 build/obj_files/main.o
 .debug_macro   0x0000000000000a4d      0x103 build/obj_files/main.o
 .debug_macro   0x0000000000000b50       0x6a build/obj_files/main.o
 .debug_macro   0x0000000000000bba      0x1df build/obj_files/main.o
 .debug_macro   0x0000000000000d99      0x14e build/obj_files/main.o
 .debug_macro   0x0000000000000ee7       0xc4 build/obj_files/main.o
 .debug_macro   0x0000000000000fab       0x10 build/obj_files/main.o
 .debug_macro   0x0000000000000fbb       0x1c build/obj_files/main.o
 .debug_macro   0x0000000000000fd7       0x16 build/obj_files/main.o
 .debug_macro   0x0000000000000fed       0xac build/obj_files/main.o
 .debug_macro   0x0000000000001099       0x58 build/obj_files/main.o
 .debug_macro   0x00000000000010f1       0x19 build/obj_files/main.o
 .debug_macro   0x000000000000110a       0x52 build/obj_files/main.o
 .debug_macro   0x000000000000115c       0x34 build/obj_files/main.o
 .debug_macro   0x0000000000001190       0x34 build/obj_files/main.o
 .debug_macro   0x00000000000011c4       0x16 build/obj_files/main.o
 .debug_macro   0x00000000000011da      0x10e build/obj_files/main.o
 .debug_macro   0x00000000000012e8       0x8d build/obj_files/main.o
 .debug_macro   0x0000000000001375       0x16 build/obj_files/main.o
 .debug_macro   0x000000000000138b       0x43 build/obj_files/main.o
 .debug_macro   0x00000000000013ce       0x34 build/obj_files/main.o
 .debug_macro   0x0000000000001402       0x10 build/obj_files/main.o
 .debug_macro   0x0000000000001412       0x52 build/obj_files/main.o
 .debug_macro   0x0000000000001464      0x182 build/obj_files/main.o
 .debug_macro   0x00000000000015e6      0x339 build/obj_files/main.o
 .debug_macro   0x000000000000191f       0x16 build/obj_files/main.o
 .debug_macro   0x0000000000001935       0x29 build/obj_files/main.o
 .debug_macro   0x000000000000195e      0x1a9 build/obj_files/main.o
 .debug_macro   0x0000000000001b07       0x16 build/obj_files/main.o
 .debug_macro   0x0000000000001b1d       0x35 build/obj_files/main.o
 .debug_macro   0x0000000000001b52      0x1b8 build/obj_files/main.o
 .debug_macro   0x0000000000001d0a       0x2e build/obj_files/main.o
 .debug_macro   0x0000000000001d38      0x100 build/obj_files/main.o
 .debug_macro   0x0000000000001e38       0x16 build/obj_files/main.o
 .debug_macro   0x0000000000001e4e       0x2e build/obj_files/main.o
 .debug_macro   0x0000000000001e7c       0x10 build/obj_files/main.o
 .debug_macro   0x0000000000001e8c       0x9a build/obj_files/main.o

.debug_line     0x0000000000000000     0x2187
 .debug_line    0x0000000000000000     0x1ff4 build/obj_files/main.o
 .debug_line    0x0000000000001ff4       0x82 build/obj_files/start.o
 .debug_line    0x0000000000002076      0x111 build/obj_files/trap.o

.debug_str      0x0000000000000000     0x9142
 .debug_str     0x0000000000000000     0x9119 build/obj_files/main.o
                                       0x93f6 (size before relaxing)
 .debug_str     0x0000000000009119       0x18 build/obj_files/start.o
                                         0x6c (size before relaxing)
 .debug_str     0x0000000000009131       0x11 build/obj_files/trap.o
                                         0x71 (size before relaxing)

.comment        0x0000000000000000       0x33
 .comment       0x0000000000000000       0x33 build/obj_files/main.o
                                         0x34 (size before relaxing)

.debug_frame    0x0000000000000000      0x414
 .debug_frame   0x0000000000000000      0x414 build/obj_files/main.o
